; Function Attrs: nounwind uwtable
define ptr @l_Or_by__cases___at_Std_Time_HourMarker_toRelative___spec__1(ptr noundef %0, ptr readnone captures(none) %1, ptr readnone captures(none) %2, ptr noundef %3, ptr noundef %4) local_unnamed_addr #1 {
  %6 = load ptr, ptr @l_Std_Time_HourMarker_toAbsolute___closed__1, align 8, !tbaa !10
  %7 = ptrtoint ptr %0 to i64
  %8 = and i64 %7, 1
  %.not.i.i = icmp eq i64 %8, 0
  br i1 %.not.i.i, label %lean_int_dec_lt.exit, label %9, !prof !15

9:                                                ; preds = %5
  %10 = ptrtoint ptr %6 to i64
  %11 = and i64 %10, 1
  %.not7.i.i = icmp eq i64 %11, 0
  br i1 %.not7.i.i, label %lean_int_dec_lt.exit, label %12, !prof !15

12:                                               ; preds = %9
  %13 = lshr i64 %7, 1
  %14 = trunc i64 %13 to i32
  %15 = lshr i64 %10, 1
  %16 = trunc i64 %15 to i32
  %17 = icmp slt i32 %14, %16
  br i1 %17, label %29, label %19

lean_int_dec_lt.exit:                             ; preds = %5, %9
  %18 = tail call zeroext i1 @lean_int_big_lt(ptr noundef %0, ptr noundef %6) #7
  br i1 %18, label %29, label %19

19:                                               ; preds = %12, %lean_int_dec_lt.exit
  %20 = ptrtoint ptr %3 to i64
  %21 = and i64 %20, 1
  %.not12 = icmp eq i64 %21, 0
  br i1 %.not12, label %22, label %lean_dec.exit9

22:                                               ; preds = %19
  %23 = load i32, ptr %3, align 4, !tbaa !4
  %24 = icmp sgt i32 %23, 1
  br i1 %24, label %25, label %27, !prof !9

25:                                               ; preds = %22
  %26 = add nsw i32 %23, -1
  store i32 %26, ptr %3, align 4, !tbaa !4
  br label %lean_dec.exit9

27:                                               ; preds = %22
  %.not.i = icmp eq i32 %23, 0
  br i1 %.not.i, label %lean_dec.exit9, label %28

28:                                               ; preds = %27
  tail call void @lean_dec_ref_cold(ptr noundef nonnull %3) #7
  br label %lean_dec.exit9

29:                                               ; preds = %12, %lean_int_dec_lt.exit
  %30 = ptrtoint ptr %4 to i64
  %31 = and i64 %30, 1
  %.not = icmp eq i64 %31, 0
  br i1 %.not, label %32, label %lean_dec.exit9

32:                                               ; preds = %29
  %33 = load i32, ptr %4, align 4, !tbaa !4
  %34 = icmp sgt i32 %33, 1
  br i1 %34, label %35, label %37, !prof !9

35:                                               ; preds = %32
  %36 = add nsw i32 %33, -1
  store i32 %36, ptr %4, align 4, !tbaa !4
  br label %lean_dec.exit9

37:                                               ; preds = %32
  %.not.i10 = icmp eq i32 %33, 0
  br i1 %.not.i10, label %lean_dec.exit9, label %38

38:                                               ; preds = %37
  tail call void @lean_dec_ref_cold(ptr noundef nonnull %4) #7
  br label %lean_dec.exit9

lean_dec.exit9:                                   ; preds = %29, %35, %37, %38, %19, %25, %27, %28
  %.sink = phi ptr [ %4, %28 ], [ %4, %27 ], [ %4, %25 ], [ %4, %19 ], [ %3, %38 ], [ %3, %37 ], [ %3, %35 ], [ %3, %29 ]
  %39 = tail call ptr @lean_apply_1(ptr noundef %.sink, ptr noundef nonnull inttoptr (i64 1 to ptr)) #7
  ret ptr %39
}